; Function Attrs: nounwind uwtable
define dso_local noundef ptr @transformGroupingFunc(ptr noundef %0, ptr noundef readonly captures(none) %1) local_unnamed_addr #0 {
  %3 = getelementptr inbounds nuw i8, ptr %1, i64 8
  %4 = load ptr, ptr %3, align 8
  %5 = tail call noundef ptr @palloc0(i64 noundef 40) #11
  store i32 10, ptr %5, align 4
  %.not.i = icmp eq ptr %4, null
  br i1 %.not.i, label %._crit_edge, label %list_length.exit

.lr.ph:                                           ; preds = %list_length.exit
  %6 = getelementptr inbounds nuw i8, ptr %4, i64 4
  %7 = getelementptr inbounds nuw i8, ptr %4, i64 16
  %8 = getelementptr inbounds nuw i8, ptr %0, i64 144
  %9 = load i32, ptr %6, align 4
  %10 = icmp sgt i32 %9, 0
  br i1 %10, label %.critedge, label %._crit_edge

list_length.exit:                                 ; preds = %2
  %11 = getelementptr inbounds nuw i8, ptr %4, i64 4
  %12 = load i32, ptr %11, align 4
  %13 = icmp sgt i32 %12, 31
  br i1 %13, label %14, label %.lr.ph

14:                                               ; preds = %list_length.exit
  %15 = tail call zeroext i1 @errstart_cold(i32 noundef 21, ptr noundef null) #12
  tail call void @llvm.assume(i1 %15)
  %16 = tail call i32 @errcode(i32 noundef 50856197) #11
  %17 = tail call i32 (ptr, ...) @errmsg(ptr noundef nonnull @.str.3) #11
  %18 = getelementptr inbounds nuw i8, ptr %1, i64 36
  %19 = load i32, ptr %18, align 4
  %20 = tail call i32 @parser_errposition(ptr noundef %0, i32 noundef %19) #11
  tail call void @errfinish(ptr noundef nonnull @.str.2, i32 noundef 276, ptr noundef nonnull @__func__.transformGroupingFunc) #11
  unreachable

._crit_edge:                                      ; preds = %.critedge, %2, %.lr.ph
  %.021.lcssa = phi ptr [ null, %.lr.ph ], [ null, %2 ], [ %30, %.critedge ]
  %21 = getelementptr inbounds nuw i8, ptr %5, i64 8
  store ptr %.021.lcssa, ptr %21, align 8
  %22 = getelementptr inbounds nuw i8, ptr %1, i64 36
  %23 = load i32, ptr %22, align 4
  %24 = getelementptr inbounds nuw i8, ptr %5, i64 36
  store i32 %23, ptr %24, align 4
  tail call fastcc void @check_agglevels_and_constraints(ptr noundef %0, ptr noundef nonnull %5)
  ret ptr %5

.critedge:                                        ; preds = %.lr.ph, %.critedge
  %indvars.iv = phi i64 [ %indvars.iv.next, %.critedge ], [ 0, %.lr.ph ]
  %.0212730 = phi ptr [ %30, %.critedge ], [ null, %.lr.ph ]
  %25 = load ptr, ptr %7, align 8
  %26 = getelementptr inbounds nuw %union.ListCell, ptr %25, i64 %indvars.iv
  %27 = load ptr, ptr %26, align 8
  %28 = load i32, ptr %8, align 8
  %29 = tail call ptr @transformExpr(ptr noundef %0, ptr noundef %27, i32 noundef %28) #11
  %30 = tail call ptr @lappend(ptr noundef %.0212730, ptr noundef %29) #11
  %indvars.iv.next = add nuw nsw i64 %indvars.iv, 1
  %31 = load i32, ptr %6, align 4
  %32 = sext i32 %31 to i64
  %33 = icmp slt i64 %indvars.iv.next, %32
  br i1 %33, label %.critedge, label %._crit_edge
}